; ModuleID = '17/1226.c'
source_filename = "17/1226.c"
target datalayout = "e-m:e-p270:32:32-p271:32:32-p272:64:64-i64:64-f80:128-n8:16:32:64-S128"
target triple = "x86_64-pc-linux-gnu"

@.str = private unnamed_addr constant [3 x i8] c"%d\00", align 1
@.str.1 = private unnamed_addr constant [3 x i8] c"%c\00", align 1
@.str.2 = private unnamed_addr constant [2 x i8] c"\0A\00", align 1

; Function Attrs: noinline nounwind uwtable
define dso_local i32 @main() #0 {
  %1 = alloca i32, align 4
  %2 = alloca i32, align 4
  %3 = alloca i32, align 4
  %4 = alloca [1000 x i8], align 16
  %5 = alloca [5 x i8], align 1
  store i32 0, i32* %1, align 4
  %6 = call i32 (i8*, ...) @__isoc99_scanf(i8* getelementptr inbounds ([3 x i8], [3 x i8]* @.str, i64 0, i64 0), i32* %2)
  %7 = getelementptr inbounds [5 x i8], [5 x i8]* %5, i64 0, i64 0
  %8 = call i32 (i8*, ...) bitcast (i32 (...)* @gets to i32 (i8*, ...)*)(i8* %7)
  store i32 1, i32* %3, align 4
  br label %9

9:                                                ; preds = %22, %0
  %10 = load i32, i32* %3, align 4
  %11 = load i32, i32* %2, align 4
  %12 = icmp sle i32 %10, %11
  br i1 %12, label %13, label %25

13:                                               ; preds = %9
  %14 = getelementptr inbounds [1000 x i8], [1000 x i8]* %4, i64 0, i64 0
  %15 = call i32 (i8*, ...) bitcast (i32 (...)* @gets to i32 (i8*, ...)*)(i8* %14)
  %16 = getelementptr inbounds [1000 x i8], [1000 x i8]* %4, i64 0, i64 0
  %17 = call i32 @puts(i8* %16)
  %18 = getelementptr inbounds [1000 x i8], [1000 x i8]* %4, i64 0, i64 0
  %19 = getelementptr inbounds [1000 x i8], [1000 x i8]* %4, i64 0, i64 0
  %20 = call i64 @strlen(i8* %19) #3
  %21 = trunc i64 %20 to i32
  call void @peidui(i8* %18, i32 %21)
  br label %22

22:                                               ; preds = %13
  %23 = load i32, i32* %3, align 4
  %24 = add nsw i32 %23, 1
  store i32 %24, i32* %3, align 4
  br label %9

25:                                               ; preds = %9
  %26 = load i32, i32* %1, align 4
  ret i32 %26
}

declare dso_local i32 @__isoc99_scanf(i8*, ...) #1

declare dso_local i32 @gets(...) #1

declare dso_local i32 @puts(i8*) #1

; Function Attrs: noinline nounwind uwtable
define dso_local void @peidui(i8* %0, i32 %1) #0 {
  %3 = alloca i8*, align 8
  %4 = alloca i32, align 4
  %5 = alloca [500 x i32], align 16
  %6 = alloca i32, align 4
  %7 = alloca i32, align 4
  %8 = alloca i32, align 4
  %9 = alloca i32, align 4
  %10 = alloca i32, align 4
  %11 = alloca i8*, align 8
  %12 = alloca [1000 x i8], align 16
  %13 = alloca i32, align 4
  store i8* %0, i8** %3, align 8
  store i32 %1, i32* %4, align 4
  store i32 0, i32* %6, align 4
  store i32 0, i32* %8, align 4
  br label %14

14:                                               ; preds = %38, %2
  %15 = load i32, i32* %8, align 4
  %16 = load i32, i32* %4, align 4
  %17 = sub nsw i32 %16, 1
  %18 = icmp sle i32 %15, %17
  br i1 %18, label %19, label %41

19:                                               ; preds = %14
  %20 = load i8*, i8** %3, align 8
  %21 = load i32, i32* %8, align 4
  %22 = sext i32 %21 to i64
  %23 = getelementptr inbounds i8, i8* %20, i64 %22
  %24 = load i8, i8* %23, align 1
  %25 = sext i8 %24 to i32
  %26 = icmp eq i32 %25, 40
  br i1 %26, label %27, label %34

27:                                               ; preds = %19
  %28 = load i32, i32* %8, align 4
  %29 = load i32, i32* %6, align 4
  %30 = sext i32 %29 to i64
  %31 = getelementptr inbounds [500 x i32], [500 x i32]* %5, i64 0, i64 %30
  store i32 %28, i32* %31, align 4
  %32 = load i32, i32* %6, align 4
  %33 = add nsw i32 %32, 1
  store i32 %33, i32* %6, align 4
  br label %34

34:                                               ; preds = %27, %19
  %35 = load i32, i32* %8, align 4
  %36 = sext i32 %35 to i64
  %37 = getelementptr inbounds [1000 x i8], [1000 x i8]* %12, i64 0, i64 %36
  store i8 32, i8* %37, align 1
  br label %38

38:                                               ; preds = %34
  %39 = load i32, i32* %8, align 4
  %40 = add nsw i32 %39, 1
  store i32 %40, i32* %8, align 4
  br label %14

41:                                               ; preds = %14
  %42 = load i32, i32* %6, align 4
  %43 = sub nsw i32 %42, 1
  store i32 %43, i32* %9, align 4
  br label %44

44:                                               ; preds = %101, %41
  %45 = load i32, i32* %9, align 4
  %46 = icmp sge i32 %45, 0
  br i1 %46, label %47, label %104

47:                                               ; preds = %44
  store i32 0, i32* %13, align 4
  %48 = load i32, i32* %9, align 4
  %49 = sext i32 %48 to i64
  %50 = getelementptr inbounds [500 x i32], [500 x i32]* %5, i64 0, i64 %49
  %51 = load i32, i32* %50, align 4
  %52 = add nsw i32 %51, 1
  store i32 %52, i32* %10, align 4
  br label %53

53:                                               ; preds = %84, %47
  %54 = load i32, i32* %10, align 4
  %55 = load i32, i32* %4, align 4
  %56 = sub nsw i32 %55, 1
  %57 = icmp sle i32 %54, %56
  br i1 %57, label %58, label %87

58:                                               ; preds = %53
  %59 = load i8*, i8** %3, align 8
  %60 = load i32, i32* %10, align 4
  %61 = sext i32 %60 to i64
  %62 = getelementptr inbounds i8, i8* %59, i64 %61
  %63 = load i8, i8* %62, align 1
  %64 = sext i8 %63 to i32
  %65 = icmp eq i32 %64, 41
  br i1 %65, label %66, label %83

66:                                               ; preds = %58
  %67 = load i32, i32* %10, align 4
  %68 = sext i32 %67 to i64
  %69 = getelementptr inbounds [1000 x i8], [1000 x i8]* %12, i64 0, i64 %68
  %70 = load i8, i8* %69, align 1
  %71 = sext i8 %70 to i32
  %72 = icmp ne i32 %71, 109
  br i1 %72, label %73, label %83

73:                                               ; preds = %66
  store i32 1, i32* %13, align 4
  %74 = load i32, i32* %10, align 4
  %75 = sext i32 %74 to i64
  %76 = getelementptr inbounds [1000 x i8], [1000 x i8]* %12, i64 0, i64 %75
  store i8 109, i8* %76, align 1
  %77 = load i32, i32* %9, align 4
  %78 = sext i32 %77 to i64
  %79 = getelementptr inbounds [500 x i32], [500 x i32]* %5, i64 0, i64 %78
  %80 = load i32, i32* %79, align 4
  %81 = sext i32 %80 to i64
  %82 = getelementptr inbounds [1000 x i8], [1000 x i8]* %12, i64 0, i64 %81
  store i8 109, i8* %82, align 1
  br label %87

83:                                               ; preds = %66, %58
  br label %84

84:                                               ; preds = %83
  %85 = load i32, i32* %10, align 4
  %86 = add nsw i32 %85, 1
  store i32 %86, i32* %10, align 4
  br label %53

87:                                               ; preds = %73, %53
  %88 = load i32, i32* %9, align 4
  %89 = sext i32 %88 to i64
  %90 = getelementptr inbounds [500 x i32], [500 x i32]* %5, i64 0, i64 %89
  %91 = load i32, i32* %90, align 4
  %92 = load i32, i32* %4, align 4
  %93 = sub nsw i32 %92, 1
  %94 = icmp eq i32 %91, %93
  br i1 %94, label %95, label %100

95:                                               ; preds = %87
  %96 = load i32, i32* %4, align 4
  %97 = sub nsw i32 %96, 1
  %98 = sext i32 %97 to i64
  %99 = getelementptr inbounds [1000 x i8], [1000 x i8]* %12, i64 0, i64 %98
  store i8 36, i8* %99, align 1
  br label %100

100:                                              ; preds = %95, %87
  br label %101

101:                                              ; preds = %100
  %102 = load i32, i32* %9, align 4
  %103 = add nsw i32 %102, -1
  store i32 %103, i32* %9, align 4
  br label %44

104:                                              ; preds = %44
  store i32 0, i32* %8, align 4
  br label %105

105:                                              ; preds = %149, %104
  %106 = load i32, i32* %8, align 4
  %107 = load i32, i32* %4, align 4
  %108 = sub nsw i32 %107, 1
  %109 = icmp sle i32 %106, %108
  br i1 %109, label %110, label %152

110:                                              ; preds = %105
  %111 = load i8*, i8** %3, align 8
  %112 = load i32, i32* %8, align 4
  %113 = sext i32 %112 to i64
  %114 = getelementptr inbounds i8, i8* %111, i64 %113
  %115 = load i8, i8* %114, align 1
  %116 = sext i8 %115 to i32
  %117 = icmp eq i32 %116, 40
  br i1 %117, label %118, label %129

118:                                              ; preds = %110
  %119 = load i32, i32* %8, align 4
  %120 = sext i32 %119 to i64
  %121 = getelementptr inbounds [1000 x i8], [1000 x i8]* %12, i64 0, i64 %120
  %122 = load i8, i8* %121, align 1
  %123 = sext i8 %122 to i32
  %124 = icmp ne i32 %123, 109
  br i1 %124, label %125, label %129

125:                                              ; preds = %118
  %126 = load i32, i32* %8, align 4
  %127 = sext i32 %126 to i64
  %128 = getelementptr inbounds [1000 x i8], [1000 x i8]* %12, i64 0, i64 %127
  store i8 36, i8* %128, align 1
  br label %129

129:                                              ; preds = %125, %118, %110
  %130 = load i8*, i8** %3, align 8
  %131 = load i32, i32* %8, align 4
  %132 = sext i32 %131 to i64
  %133 = getelementptr inbounds i8, i8* %130, i64 %132
  %134 = load i8, i8* %133, align 1
  %135 = sext i8 %134 to i32
  %136 = icmp eq i32 %135, 41
  br i1 %136, label %137, label %148

137:                                              ; preds = %129
  %138 = load i32, i32* %8, align 4
  %139 = sext i32 %138 to i64
  %140 = getelementptr inbounds [1000 x i8], [1000 x i8]* %12, i64 0, i64 %139
  %141 = load i8, i8* %140, align 1
  %142 = sext i8 %141 to i32
  %143 = icmp ne i32 %142, 109
  br i1 %143, label %144, label %148

144:                                              ; preds = %137
  %145 = load i32, i32* %8, align 4
  %146 = sext i32 %145 to i64
  %147 = getelementptr inbounds [1000 x i8], [1000 x i8]* %12, i64 0, i64 %146
  store i8 63, i8* %147, align 1
  br label %148

148:                                              ; preds = %144, %137, %129
  br label %149

149:                                              ; preds = %148
  %150 = load i32, i32* %8, align 4
  %151 = add nsw i32 %150, 1
  store i32 %151, i32* %8, align 4
  br label %105

152:                                              ; preds = %105
  store i32 0, i32* %8, align 4
  br label %153

153:                                              ; preds = %175, %152
  %154 = load i32, i32* %8, align 4
  %155 = load i32, i32* %4, align 4
  %156 = sub nsw i32 %155, 1
  %157 = icmp sle i32 %154, %156
  br i1 %157, label %158, label %178

158:                                              ; preds = %153
  %159 = load i32, i32* %8, align 4
  %160 = sext i32 %159 to i64
  %161 = getelementptr inbounds [1000 x i8], [1000 x i8]* %12, i64 0, i64 %160
  %162 = load i8, i8* %161, align 1
  %163 = sext i8 %162 to i32
  %164 = icmp eq i32 %163, 109
  br i1 %164, label %165, label %167

165:                                              ; preds = %158
  %166 = call i32 (i8*, ...) @printf(i8* getelementptr inbounds ([3 x i8], [3 x i8]* @.str.1, i64 0, i64 0), i32 32)
  br label %174

167:                                              ; preds = %158
  %168 = load i32, i32* %8, align 4
  %169 = sext i32 %168 to i64
  %170 = getelementptr inbounds [1000 x i8], [1000 x i8]* %12, i64 0, i64 %169
  %171 = load i8, i8* %170, align 1
  %172 = sext i8 %171 to i32
  %173 = call i32 (i8*, ...) @printf(i8* getelementptr inbounds ([3 x i8], [3 x i8]* @.str.1, i64 0, i64 0), i32 %172)
  br label %174

174:                                              ; preds = %167, %165
  br label %175

175:                                              ; preds = %174
  %176 = load i32, i32* %8, align 4
  %177 = add nsw i32 %176, 1
  store i32 %177, i32* %8, align 4
  br label %153

178:                                              ; preds = %153
  %179 = call i32 (i8*, ...) @printf(i8* getelementptr inbounds ([2 x i8], [2 x i8]* @.str.2, i64 0, i64 0))
  ret void
}

; Function Attrs: nounwind readonly
declare dso_local i64 @strlen(i8*) #2

declare dso_local i32 @printf(i8*, ...) #1


!llvm.module.flags = !{!0}
!llvm.ident = !{!1}

!0 = !{i32 1, !"wchar_size", i32 4}
!1 = !{!"clang version 10.0.0-4ubuntu1 "}
